---
triple:          'arm64-apple-darwin'
binary-path:     2a
relocations:
  - { offsetInCU: 0x5541, offset: 0x5541, size: 0x8, addend: 0x0, symName: __ZNSt3__113__fill_n_trueB8ue170006INS_8__bitsetILm1ELm64EEEEEvNS_14__bit_iteratorIT_Lb0EXLi0EEEENS4_9size_typeE, symObjAddr: 0x3290, symBinAddr: 0x10000529C, symSize: 0x160 }
  - { offsetInCU: 0x5606, offset: 0x5606, size: 0x8, addend: 0x0, symName: __ZNSt3__114__fill_n_falseB8ue170006INS_8__bitsetILm1ELm64EEEEEvNS_14__bit_iteratorIT_Lb0EXLi0EEEENS4_9size_typeE, symObjAddr: 0x3424, symBinAddr: 0x100005430, symSize: 0x15C }
  - { offsetInCU: 0x56CB, offset: 0x56CB, size: 0x8, addend: 0x0, symName: __ZNSt3__117__count_bool_trueB8ue170006INS_8__bitsetILm1ELm64EEELb1EEENS_14__bit_iteratorIT_XT0_EXLi0EEE15difference_typeES5_NS4_9size_typeE, symObjAddr: 0x3938, symBinAddr: 0x100005944, symSize: 0x170 }
  - { offsetInCU: 0x57A9, offset: 0x57A9, size: 0x8, addend: 0x0, symName: __ZNSt3__124__put_character_sequenceB8ue170006IcNS_11char_traitsIcEEEERNS_13basic_ostreamIT_T0_EES7_PKS4_m, symObjAddr: 0x3B98, symBinAddr: 0x100005BA4, symSize: 0x1EC }
  - { offsetInCU: 0x6BE0, offset: 0x6BE0, size: 0x8, addend: 0x0, symName: __ZNSt3__113__fill_n_trueB8ue170006INS_8__bitsetILm1ELm32EEEEEvNS_14__bit_iteratorIT_Lb0EXLi0EEEENS4_9size_typeE, symObjAddr: 0x5048, symBinAddr: 0x100007054, symSize: 0x160 }
  - { offsetInCU: 0x6CA5, offset: 0x6CA5, size: 0x8, addend: 0x0, symName: __ZNSt3__114__fill_n_falseB8ue170006INS_8__bitsetILm1ELm32EEEEEvNS_14__bit_iteratorIT_Lb0EXLi0EEEENS4_9size_typeE, symObjAddr: 0x51A8, symBinAddr: 0x1000071B4, symSize: 0x15C }
  - { offsetInCU: 0x859E, offset: 0x859E, size: 0x8, addend: 0x0, symName: __ZNSt3__1lsB8ue170006INS_11char_traitsIcEEEERNS_13basic_ostreamIcT_EES6_PKc, symObjAddr: 0xB44, symBinAddr: 0x100002B50, symSize: 0x48 }
  - { offsetInCU: 0x85E4, offset: 0x85E4, size: 0x8, addend: 0x0, symName: __ZNSt3__14endlB8ue170006IcNS_11char_traitsIcEEEERNS_13basic_ostreamIT_T0_EES7_, symObjAddr: 0xBB8, symBinAddr: 0x100002BC4, symSize: 0x58 }
  - { offsetInCU: 0x8624, offset: 0x8624, size: 0x8, addend: 0x0, symName: __ZNSt3__1neB8ue170006IPNS_6bitsetILm64EEEEEbRKNS_11__wrap_iterIT_EES8_, symObjAddr: 0xC70, symBinAddr: 0x100002C7C, symSize: 0x34 }
  - { offsetInCU: 0x8667, offset: 0x8667, size: 0x8, addend: 0x0, symName: __ZNSt3__1lsB8ue170006IcNS_11char_traitsIcEELm48EEERNS_13basic_ostreamIT_T0_EES7_RKNS_6bitsetIXT1_EEE, symObjAddr: 0xDB4, symBinAddr: 0x100002DC0, symSize: 0x158 }
  - { offsetInCU: 0x86C0, offset: 0x86C0, size: 0x8, addend: 0x0, symName: __ZNSt3__1eqB8ue170006IPNS_6bitsetILm64EEEEEbRKNS_11__wrap_iterIT_EES8_, symObjAddr: 0x10B0, symBinAddr: 0x1000030BC, symSize: 0x48 }
  - { offsetInCU: 0x8703, offset: 0x8703, size: 0x8, addend: 0x0, symName: __ZNSt3__112__to_addressB8ue170006INS_6bitsetILm64EEEEEPT_S4_, symObjAddr: 0x173C, symBinAddr: 0x100003748, symSize: 0x14 }
  - { offsetInCU: 0x8738, offset: 0x8738, size: 0x8, addend: 0x0, symName: __ZNSt3__119__libcpp_deallocateB8ue170006EPvmm, symObjAddr: 0x1814, symBinAddr: 0x100003820, symSize: 0x60 }
  - { offsetInCU: 0x879D, offset: 0x879D, size: 0x8, addend: 0x0, symName: __ZNSt3__124__is_overaligned_for_newB8ue170006Em, symObjAddr: 0x1874, symBinAddr: 0x100003880, symSize: 0x20 }
  - { offsetInCU: 0x87CB, offset: 0x87CB, size: 0x8, addend: 0x0, symName: __ZNSt3__127__do_deallocate_handle_sizeB8ue170006IJSt11align_val_tEEEvPvmDpT_, symObjAddr: 0x1894, symBinAddr: 0x1000038A0, symSize: 0x30 }
  - { offsetInCU: 0x881E, offset: 0x881E, size: 0x8, addend: 0x0, symName: __ZNSt3__127__do_deallocate_handle_sizeB8ue170006IJEEEvPvmDpT_, symObjAddr: 0x18C4, symBinAddr: 0x1000038D0, symSize: 0x28 }
  - { offsetInCU: 0x885C, offset: 0x885C, size: 0x8, addend: 0x0, symName: __ZNSt3__124__libcpp_operator_deleteB8ue170006IJPvSt11align_val_tEEEvDpT_, symObjAddr: 0x18EC, symBinAddr: 0x1000038F8, symSize: 0x2C }
  - { offsetInCU: 0x88A5, offset: 0x88A5, size: 0x8, addend: 0x0, symName: __ZNSt3__124__libcpp_operator_deleteB8ue170006IJPvEEEvDpT_, symObjAddr: 0x1918, symBinAddr: 0x100003924, symSize: 0x24 }
  - { offsetInCU: 0x88DA, offset: 0x88DA, size: 0x8, addend: 0x0, symName: __ZNSt3__112__to_addressB8ue170006IKcEEPT_S3_, symObjAddr: 0x1AA4, symBinAddr: 0x100003AB0, symSize: 0x14 }
  - { offsetInCU: 0x8942, offset: 0x8942, size: 0x8, addend: 0x0, symName: __ZNSt3__13maxB8ue170006ImEERKT_S3_S3_, symObjAddr: 0x2110, symBinAddr: 0x10000411C, symSize: 0x2C }
  - { offsetInCU: 0x8985, offset: 0x8985, size: 0x8, addend: 0x0, symName: __ZNSt3__13minB8ue170006ImEERKT_S3_S3_, symObjAddr: 0x213C, symBinAddr: 0x100004148, symSize: 0x2C }
  - { offsetInCU: 0x8BB2, offset: 0x8BB2, size: 0x8, addend: 0x0, symName: __ZNSt3__13minB8ue170006ImNS_6__lessIvvEEEERKT_S5_S5_T0_, symObjAddr: 0x21C8, symBinAddr: 0x1000041D4, symSize: 0x54 }
  - { offsetInCU: 0x8C51, offset: 0x8C51, size: 0x8, addend: 0x0, symName: __ZNSt3__120__throw_length_errorB8ue170006EPKc, symObjAddr: 0x22A4, symBinAddr: 0x1000042B0, symSize: 0x64 }
  - { offsetInCU: 0x8C7B, offset: 0x8C7B, size: 0x8, addend: 0x0, symName: __ZNSt3__13maxB8ue170006ImNS_6__lessIvvEEEERKT_S5_S5_T0_, symObjAddr: 0x2388, symBinAddr: 0x100004394, symSize: 0x54 }
  - { offsetInCU: 0x8CD5, offset: 0x8CD5, size: 0x8, addend: 0x0, symName: __ZNSt3__119__allocate_at_leastB8ue170006INS_9allocatorINS_6bitsetILm64EEEEEEENS_19__allocation_resultINS_16allocator_traitsIT_E7pointerEEERS7_m, symObjAddr: 0x24EC, symBinAddr: 0x1000044F8, symSize: 0x40 }
  - { offsetInCU: 0x8D18, offset: 0x8D18, size: 0x8, addend: 0x0, symName: __ZNSt3__117__libcpp_allocateB8ue170006Emm, symObjAddr: 0x2670, symBinAddr: 0x10000467C, symSize: 0x60 }
  - { offsetInCU: 0x8D72, offset: 0x8D72, size: 0x8, addend: 0x0, symName: __ZNSt3__121__libcpp_operator_newB8ue170006IJmSt11align_val_tEEEPvDpT_, symObjAddr: 0x26D0, symBinAddr: 0x1000046DC, symSize: 0x2C }
  - { offsetInCU: 0x8DBF, offset: 0x8DBF, size: 0x8, addend: 0x0, symName: __ZNSt3__121__libcpp_operator_newB8ue170006IJmEEEPvDpT_, symObjAddr: 0x26FC, symBinAddr: 0x100004708, symSize: 0x24 }
  - { offsetInCU: 0x8DF8, offset: 0x8DF8, size: 0x8, addend: 0x0, symName: __ZNSt3__142__uninitialized_allocator_move_if_noexceptB8ue170006INS_9allocatorINS_6bitsetILm64EEEEENS_16reverse_iteratorIPS3_EES7_S3_vEET1_RT_T0_SB_S8_, symObjAddr: 0x2784, symBinAddr: 0x100004790, symSize: 0x78 }
  - { offsetInCU: 0x8E75, offset: 0x8E75, size: 0x8, addend: 0x0, symName: __ZNSt3__14swapB8ue170006IPNS_6bitsetILm64EEEEENS_9enable_ifIXaasr21is_move_constructibleIT_EE5valuesr18is_move_assignableIS5_EE5valueEvE4typeERS5_S8_, symObjAddr: 0x2848, symBinAddr: 0x100004854, symSize: 0x3C }
  - { offsetInCU: 0x8EC6, offset: 0x8EC6, size: 0x8, addend: 0x0, symName: __ZNSt3__14moveB8ue170006INS_16reverse_iteratorIPNS_6bitsetILm64EEEEES5_EET0_T_S7_S6_, symObjAddr: 0x2930, symBinAddr: 0x10000493C, symSize: 0x78 }
  - { offsetInCU: 0x8F20, offset: 0x8F20, size: 0x8, addend: 0x0, symName: __ZNSt3__16__moveB8ue170006INS_17_ClassicAlgPolicyENS_16reverse_iteratorIPNS_6bitsetILm64EEEEES6_S6_EENS_4pairIT0_T2_EES8_T1_S9_, symObjAddr: 0x29A8, symBinAddr: 0x1000049B4, symSize: 0x64 }
  - { offsetInCU: 0x8F8C, offset: 0x8F8C, size: 0x8, addend: 0x0, symName: __ZNSt3__123__dispatch_copy_or_moveB8ue170006INS_17_ClassicAlgPolicyENS_11__move_loopIS1_EENS_14__move_trivialENS_16reverse_iteratorIPNS_6bitsetILm64EEEEES9_S9_EENS_4pairIT2_T4_EESB_T3_SC_, symObjAddr: 0x2A0C, symBinAddr: 0x100004A18, symSize: 0x64 }
  - { offsetInCU: 0x900A, offset: 0x900A, size: 0x8, addend: 0x0, symName: __ZNSt3__121__unwrap_and_dispatchB8ue170006INS_10__overloadINS_11__move_loopINS_17_ClassicAlgPolicyEEENS_14__move_trivialEEENS_16reverse_iteratorIPNS_6bitsetILm64EEEEESB_SB_Li0EEENS_4pairIT0_T2_EESD_T1_SE_, symObjAddr: 0x2A70, symBinAddr: 0x100004A7C, symSize: 0x12C }
  - { offsetInCU: 0x909A, offset: 0x909A, size: 0x8, addend: 0x0, symName: __ZNSt3__114__unwrap_rangeB8ue170006INS_16reverse_iteratorIPNS_6bitsetILm64EEEEES5_EENS_4pairIT0_S7_EET_S9_, symObjAddr: 0x2B9C, symBinAddr: 0x100004BA8, symSize: 0x84 }
  - { offsetInCU: 0x9215, offset: 0x9215, size: 0x8, addend: 0x0, symName: __ZNSt3__113__unwrap_iterB8ue170006INS_16reverse_iteratorIPNS_6bitsetILm64EEEEENS_18__unwrap_iter_implIS5_Lb0EEELi0EEEDTclsrT0_8__unwrapclsr3stdE7declvalIT_EEEES9_, symObjAddr: 0x2CC0, symBinAddr: 0x100004CCC, symSize: 0x44 }
  - { offsetInCU: 0x9259, offset: 0x9259, size: 0x8, addend: 0x0, symName: __ZNSt3__19make_pairB8ue170006INS_16reverse_iteratorIPNS_6bitsetILm64EEEEES5_EENS_4pairINS_18__unwrap_ref_decayIT_E4typeENS7_IT0_E4typeEEEOS8_OSB_, symObjAddr: 0x2D04, symBinAddr: 0x100004D10, symSize: 0x38 }
  - { offsetInCU: 0x92A8, offset: 0x92A8, size: 0x8, addend: 0x0, symName: __ZNSt3__114__rewrap_rangeB8ue170006INS_16reverse_iteratorIPNS_6bitsetILm64EEEEES5_EET_S6_T0_, symObjAddr: 0x2D3C, symBinAddr: 0x100004D48, symSize: 0x5C }
  - { offsetInCU: 0x92F4, offset: 0x92F4, size: 0x8, addend: 0x0, symName: __ZNSt3__113__rewrap_iterB8ue170006INS_16reverse_iteratorIPNS_6bitsetILm64EEEEES5_NS_18__unwrap_iter_implIS5_Lb0EEEEET_S8_T0_, symObjAddr: 0x2D98, symBinAddr: 0x100004DA4, symSize: 0x74 }
  - { offsetInCU: 0x9349, offset: 0x9349, size: 0x8, addend: 0x0, symName: __ZNSt3__1neB8ue170006IPNS_6bitsetILm64EEES3_EEbRKNS_16reverse_iteratorIT_EERKNS4_IT0_EE, symObjAddr: 0x2E0C, symBinAddr: 0x100004E18, symSize: 0x48 }
  - { offsetInCU: 0x9447, offset: 0x9447, size: 0x8, addend: 0x0, symName: __ZNSt3__16fill_nB8ue170006INS_8__bitsetILm1ELm64EEEEEvNS_14__bit_iteratorIT_Lb0EXLi0EEEENS4_9size_typeEb, symObjAddr: 0x319C, symBinAddr: 0x1000051A8, symSize: 0x94 }
  - { offsetInCU: 0x9499, offset: 0x9499, size: 0x8, addend: 0x0, symName: __ZNSt3__16fill_nB8ue170006IPmmmEET_S2_T0_RKT1_, symObjAddr: 0x3580, symBinAddr: 0x10000558C, symSize: 0x44 }
  - { offsetInCU: 0x94FC, offset: 0x94FC, size: 0x8, addend: 0x0, symName: __ZNSt3__112__to_addressB8ue170006ImEEPT_S2_, symObjAddr: 0x35C4, symBinAddr: 0x1000055D0, symSize: 0x14 }
  - { offsetInCU: 0x9531, offset: 0x9531, size: 0x8, addend: 0x0, symName: __ZNSt3__18__fill_nB8ue170006IPmmmEET_S2_T0_RKT1_, symObjAddr: 0x35D8, symBinAddr: 0x1000055E4, symSize: 0x64 }
  - { offsetInCU: 0x9594, offset: 0x9594, size: 0x8, addend: 0x0, symName: __ZNSt3__121__convert_to_integralB8ue170006Em, symObjAddr: 0x363C, symBinAddr: 0x100005648, symSize: 0x14 }
  - { offsetInCU: 0x95C0, offset: 0x95C0, size: 0x8, addend: 0x0, symName: __ZNSt3__16fill_nB8ue170006IPmmiEET_S2_T0_RKT1_, symObjAddr: 0x3680, symBinAddr: 0x10000568C, symSize: 0x44 }
  - { offsetInCU: 0x9623, offset: 0x9623, size: 0x8, addend: 0x0, symName: __ZNSt3__18__fill_nB8ue170006IPmmiEET_S2_T0_RKT1_, symObjAddr: 0x36C4, symBinAddr: 0x1000056D0, symSize: 0x64 }
  - { offsetInCU: 0x9686, offset: 0x9686, size: 0x8, addend: 0x0, symName: __ZNSt3__118__constexpr_strlenB8ue170006EPKc, symObjAddr: 0x3914, symBinAddr: 0x100005920, symSize: 0x24 }
  - { offsetInCU: 0x96B2, offset: 0x96B2, size: 0x8, addend: 0x0, symName: __ZNSt3__117__libcpp_popcountB8ue170006Em, symObjAddr: 0x3B00, symBinAddr: 0x100005B0C, symSize: 0x30 }
  - { offsetInCU: 0x96DE, offset: 0x96DE, size: 0x8, addend: 0x0, symName: __ZNSt3__116__pad_and_outputB8ue170006IcNS_11char_traitsIcEEEENS_19ostreambuf_iteratorIT_T0_EES6_PKS4_S8_S8_RNS_8ios_baseES4_, symObjAddr: 0x3DA0, symBinAddr: 0x100005DAC, symSize: 0x240 }
  - { offsetInCU: 0x97AD, offset: 0x97AD, size: 0x8, addend: 0x0, symName: __ZNSt3__112__to_addressB8ue170006IcEEPT_S2_, symObjAddr: 0x4210, symBinAddr: 0x10000621C, symSize: 0x14 }
  - { offsetInCU: 0x9815, offset: 0x9815, size: 0x8, addend: 0x0, symName: __ZNSt3__19use_facetB8ue170006INS_5ctypeIcEEEERKT_RKNS_6localeE, symObjAddr: 0x4458, symBinAddr: 0x100006464, symSize: 0x2C }
  - { offsetInCU: 0x9CE2, offset: 0x9CE2, size: 0x8, addend: 0x0, symName: __ZNSt3__120__throw_out_of_rangeB8ue170006EPKc, symObjAddr: 0x48FC, symBinAddr: 0x100006908, symSize: 0x64 }
  - { offsetInCU: 0x9D0C, offset: 0x9D0C, size: 0x8, addend: 0x0, symName: __ZNSt3__124__throw_invalid_argumentB8ue170006EPKc, symObjAddr: 0x4C38, symBinAddr: 0x100006C44, symSize: 0x64 }
  - { offsetInCU: 0x9D34, offset: 0x9D34, size: 0x8, addend: 0x0, symName: __ZNSt3__14fillB8ue170006INS_8__bitsetILm1ELm32EEEEEvNS_14__bit_iteratorIT_Lb0EXLi0EEEES5_b, symObjAddr: 0x4D44, symBinAddr: 0x100006D50, symSize: 0x6C }
  - { offsetInCU: 0x9D87, offset: 0x9D87, size: 0x8, addend: 0x0, symName: __ZNSt3__16fill_nB8ue170006INS_8__bitsetILm1ELm32EEEEEvNS_14__bit_iteratorIT_Lb0EXLi0EEEENS4_9size_typeEb, symObjAddr: 0x4F38, symBinAddr: 0x100006F44, symSize: 0x94 }
  - { offsetInCU: 0x9DD9, offset: 0x9DD9, size: 0x8, addend: 0x0, symName: __ZNSt3__1miB8ue170006ERKNS_14__bit_iteratorINS_8__bitsetILm1ELm32EEELb0ELm0EEES5_, symObjAddr: 0x5000, symBinAddr: 0x10000700C, symSize: 0x48 }
  - { offsetInCU: 0x9E16, offset: 0x9E16, size: 0x8, addend: 0x0, symName: __ZNSt3__1lsB8ue170006IcNS_11char_traitsIcEENS_9allocatorIcEEEERNS_13basic_ostreamIT_T0_EES9_RKNS_12basic_stringIS6_S7_T1_EE, symObjAddr: 0x53C8, symBinAddr: 0x1000073D4, symSize: 0x4C }
  - { offsetInCU: 0xA258, offset: 0xA258, size: 0x8, addend: 0x0, symName: __ZSt28__throw_bad_array_new_lengthB8ue170006v, symObjAddr: 0x263C, symBinAddr: 0x100004648, symSize: 0x34 }
  - { offsetInCU: 0xA7E2, offset: 0xA7E2, size: 0x8, addend: 0x0, symName: __ZNSt3__16vectorINS_6bitsetILm64EEENS_9allocatorIS2_EEE26__swap_out_circular_bufferERNS_14__split_bufferIS2_RS4_EE, symObjAddr: 0x1F58, symBinAddr: 0x100003F64, symSize: 0x110 }
  - { offsetInCU: 0xCD1B, offset: 0xCD1B, size: 0x8, addend: 0x0, symName: __Z20expansionPermutationRKNSt3__16bitsetILm32EEE, symObjAddr: 0x0, symBinAddr: 0x10000200C, symSize: 0x104 }
  - { offsetInCU: 0xCDE1, offset: 0xCDE1, size: 0x8, addend: 0x0, symName: __ZNSt3__16bitsetILm48EEC1B8ue170006Ev, symObjAddr: 0x104, symBinAddr: 0x100002110, symSize: 0x2C }
  - { offsetInCU: 0xCE23, offset: 0xCE23, size: 0x8, addend: 0x0, symName: __ZNKSt3__16bitsetILm32EEixB8ue170006Em, symObjAddr: 0x130, symBinAddr: 0x10000213C, symSize: 0x3C }
  - { offsetInCU: 0xCE57, offset: 0xCE57, size: 0x8, addend: 0x0, symName: __ZNKSt3__121__bit_const_referenceINS_8__bitsetILm1ELm32EEEEcvbB8ue170006Ev, symObjAddr: 0x16C, symBinAddr: 0x100002178, symSize: 0x2C }
  - { offsetInCU: 0xCE7C, offset: 0xCE7C, size: 0x8, addend: 0x0, symName: __ZNSt3__16bitsetILm48EEixB8ue170006Em, symObjAddr: 0x198, symBinAddr: 0x1000021A4, symSize: 0x3C }
  - { offsetInCU: 0xCEB0, offset: 0xCEB0, size: 0x8, addend: 0x0, symName: __ZNSt3__115__bit_referenceINS_8__bitsetILm1ELm48EEELb1EEaSB8ue170006Eb, symObjAddr: 0x1D4, symBinAddr: 0x1000021E0, symSize: 0x6C }
  - { offsetInCU: 0xCEE2, offset: 0xCEE2, size: 0x8, addend: 0x0, symName: __Z10padMessageRKNSt3__112basic_stringIcNS_11char_traitsIcEENS_9allocatorIcEEEE, symObjAddr: 0x240, symBinAddr: 0x10000224C, symSize: 0x2E4 }
  - { offsetInCU: 0xCFB2, offset: 0xCFB2, size: 0x8, addend: 0x0, symName: __ZNKSt3__112basic_stringIcNS_11char_traitsIcEENS_9allocatorIcEEE4sizeB8ue170006Ev, symObjAddr: 0x524, symBinAddr: 0x100002530, symSize: 0x54 }
  - { offsetInCU: 0xCFD7, offset: 0xCFD7, size: 0x8, addend: 0x0, symName: __ZNSt3__16vectorINS_6bitsetILm64EEENS_9allocatorIS2_EEEC1B8ue170006Ev, symObjAddr: 0x578, symBinAddr: 0x100002584, symSize: 0x2C }
  - { offsetInCU: 0xD000, offset: 0xD000, size: 0x8, addend: 0x0, symName: __ZNSt3__16bitsetILm64EEC1B8ue170006Ev, symObjAddr: 0x5A4, symBinAddr: 0x1000025B0, symSize: 0x2C }
  - { offsetInCU: 0xD029, offset: 0xD029, size: 0x8, addend: 0x0, symName: __ZNKSt3__112basic_stringIcNS_11char_traitsIcEENS_9allocatorIcEEEixB8ue170006Em, symObjAddr: 0x5D0, symBinAddr: 0x1000025DC, symSize: 0x30 }
  - { offsetInCU: 0xD05D, offset: 0xD05D, size: 0x8, addend: 0x0, symName: __ZNSt3__16bitsetILm64EEixB8ue170006Em, symObjAddr: 0x600, symBinAddr: 0x10000260C, symSize: 0x3C }
  - { offsetInCU: 0xD091, offset: 0xD091, size: 0x8, addend: 0x0, symName: __ZNSt3__115__bit_referenceINS_8__bitsetILm1ELm64EEELb1EEaSB8ue170006Eb, symObjAddr: 0x63C, symBinAddr: 0x100002648, symSize: 0x6C }
  - { offsetInCU: 0xD0C3, offset: 0xD0C3, size: 0x8, addend: 0x0, symName: __ZNSt3__16vectorINS_6bitsetILm64EEENS_9allocatorIS2_EEE9push_backB8ue170006ERKS2_, symObjAddr: 0x6A8, symBinAddr: 0x1000026B4, symSize: 0x6C }
  - { offsetInCU: 0xD0F8, offset: 0xD0F8, size: 0x8, addend: 0x0, symName: __ZNSt3__16bitsetILm64EE5resetB8ue170006Ev, symObjAddr: 0x714, symBinAddr: 0x100002720, symSize: 0x54 }
  - { offsetInCU: 0xD11F, offset: 0xD11F, size: 0x8, addend: 0x0, symName: __ZNSt3__16vectorINS_6bitsetILm64EEENS_9allocatorIS2_EEED1B8ue170006Ev, symObjAddr: 0x768, symBinAddr: 0x100002774, symSize: 0x2C }
  - { offsetInCU: 0xD148, offset: 0xD148, size: 0x8, addend: 0x0, symName: _main, symObjAddr: 0x794, symBinAddr: 0x1000027A0, symSize: 0x2F8 }
  - { offsetInCU: 0xD213, offset: 0xD213, size: 0x8, addend: 0x0, symName: __ZNSt3__112basic_stringIcNS_11char_traitsIcEENS_9allocatorIcEEEC1B8ue170006ILi0EEEPKc, symObjAddr: 0xA8C, symBinAddr: 0x100002A98, symSize: 0x34 }
  - { offsetInCU: 0xD251, offset: 0xD251, size: 0x8, addend: 0x0, symName: __ZNSt3__16bitsetILm64EEC1B8ue170006Ey, symObjAddr: 0xAC0, symBinAddr: 0x100002ACC, symSize: 0x34 }
  - { offsetInCU: 0xD288, offset: 0xD288, size: 0x8, addend: 0x0, symName: __ZNKSt3__16bitsetILm64EE5countB8ue170006Ev, symObjAddr: 0xAF4, symBinAddr: 0x100002B00, symSize: 0x50 }
  - { offsetInCU: 0xD2AF, offset: 0xD2AF, size: 0x8, addend: 0x0, symName: __ZNSt3__113basic_ostreamIcNS_11char_traitsIcEEElsB8ue170006EPFRS3_S4_E, symObjAddr: 0xB8C, symBinAddr: 0x100002B98, symSize: 0x2C }
  - { offsetInCU: 0xD2E1, offset: 0xD2E1, size: 0x8, addend: 0x0, symName: __ZNSt3__16vectorINS_6bitsetILm64EEENS_9allocatorIS2_EEE5beginB8ue170006Ev, symObjAddr: 0xC10, symBinAddr: 0x100002C1C, symSize: 0x30 }
  - { offsetInCU: 0xD307, offset: 0xD307, size: 0x8, addend: 0x0, symName: __ZNSt3__16vectorINS_6bitsetILm64EEENS_9allocatorIS2_EEE3endB8ue170006Ev, symObjAddr: 0xC40, symBinAddr: 0x100002C4C, symSize: 0x30 }
  - { offsetInCU: 0xD32E, offset: 0xD32E, size: 0x8, addend: 0x0, symName: __ZNKSt3__111__wrap_iterIPNS_6bitsetILm64EEEEdeB8ue170006Ev, symObjAddr: 0xCA4, symBinAddr: 0x100002CB0, symSize: 0x18 }
  - { offsetInCU: 0xD352, offset: 0xD352, size: 0x8, addend: 0x0, symName: __ZNKSt3__16bitsetILm64EE9to_stringB8ue170006Ecc, symObjAddr: 0xCBC, symBinAddr: 0x100002CC8, symSize: 0x3C }
  - { offsetInCU: 0xD397, offset: 0xD397, size: 0x8, addend: 0x0, symName: __ZNKSt3__112basic_stringIcNS_11char_traitsIcEENS_9allocatorIcEEE6substrB8ue170006Emm, symObjAddr: 0xCF8, symBinAddr: 0x100002D04, symSize: 0x68 }
  - { offsetInCU: 0xD3DA, offset: 0xD3DA, size: 0x8, addend: 0x0, symName: __ZNSt3__16bitsetILm32EEC1B8ue170006IcNS_11char_traitsIcEENS_9allocatorIcEEEERKNS_12basic_stringIT_T0_T1_EENSB_9size_typeESE_S8_S8_, symObjAddr: 0xD60, symBinAddr: 0x100002D6C, symSize: 0x54 }
  - { offsetInCU: 0xD469, offset: 0xD469, size: 0x8, addend: 0x0, symName: __ZNSt3__111__wrap_iterIPNS_6bitsetILm64EEEEppB8ue170006Ev, symObjAddr: 0xF0C, symBinAddr: 0x100002F18, symSize: 0x20 }
  - { offsetInCU: 0xD48E, offset: 0xD48E, size: 0x8, addend: 0x0, symName: __ZNSt3__16bitsetILm48EEC2B8ue170006Ev, symObjAddr: 0xF2C, symBinAddr: 0x100002F38, symSize: 0x2C }
  - { offsetInCU: 0xD4B7, offset: 0xD4B7, size: 0x8, addend: 0x0, symName: __ZNSt3__18__bitsetILm1ELm48EEC2Ev, symObjAddr: 0xF58, symBinAddr: 0x100002F64, symSize: 0x18 }
  - { offsetInCU: 0xD4E2, offset: 0xD4E2, size: 0x8, addend: 0x0, symName: __ZNKSt3__18__bitsetILm1ELm32EE10__make_refB8ue170006Em, symObjAddr: 0xF70, symBinAddr: 0x100002F7C, symSize: 0x40 }
  - { offsetInCU: 0xD516, offset: 0xD516, size: 0x8, addend: 0x0, symName: __ZNSt3__121__bit_const_referenceINS_8__bitsetILm1ELm32EEEEC1B8ue170006EPKmm, symObjAddr: 0xFB0, symBinAddr: 0x100002FBC, symSize: 0x3C }
  - { offsetInCU: 0xD55B, offset: 0xD55B, size: 0x8, addend: 0x0, symName: __ZNSt3__121__bit_const_referenceINS_8__bitsetILm1ELm32EEEEC2B8ue170006EPKmm, symObjAddr: 0xFEC, symBinAddr: 0x100002FF8, symSize: 0x2C }
  - { offsetInCU: 0xD5A0, offset: 0xD5A0, size: 0x8, addend: 0x0, symName: __ZNSt3__16bitsetILm64EEC2B8ue170006Ev, symObjAddr: 0x1018, symBinAddr: 0x100003024, symSize: 0x2C }
  - { offsetInCU: 0xD5C9, offset: 0xD5C9, size: 0x8, addend: 0x0, symName: __ZNSt3__18__bitsetILm1ELm64EEC2Ev, symObjAddr: 0x1044, symBinAddr: 0x100003050, symSize: 0x18 }
  - { offsetInCU: 0xD5F4, offset: 0xD5F4, size: 0x8, addend: 0x0, symName: __ZNSt3__16bitsetILm64EEC2B8ue170006Ey, symObjAddr: 0x105C, symBinAddr: 0x100003068, symSize: 0x34 }
  - { offsetInCU: 0xD62C, offset: 0xD62C, size: 0x8, addend: 0x0, symName: __ZNSt3__18__bitsetILm1ELm64EEC2Ey, symObjAddr: 0x1090, symBinAddr: 0x10000309C, symSize: 0x20 }
  - { offsetInCU: 0xD666, offset: 0xD666, size: 0x8, addend: 0x0, symName: __ZNKSt3__111__wrap_iterIPNS_6bitsetILm64EEEE4baseB8ue170006Ev, symObjAddr: 0x10F8, symBinAddr: 0x100003104, symSize: 0x18 }
  - { offsetInCU: 0xD68B, offset: 0xD68B, size: 0x8, addend: 0x0, symName: __ZNSt3__18__bitsetILm1ELm48EE10__make_refB8ue170006Em, symObjAddr: 0x1110, symBinAddr: 0x10000311C, symSize: 0x40 }
  - { offsetInCU: 0xD6BF, offset: 0xD6BF, size: 0x8, addend: 0x0, symName: __ZNSt3__115__bit_referenceINS_8__bitsetILm1ELm48EEELb1EEC1B8ue170006EPmm, symObjAddr: 0x1150, symBinAddr: 0x10000315C, symSize: 0x3C }
  - { offsetInCU: 0xD704, offset: 0xD704, size: 0x8, addend: 0x0, symName: __ZNSt3__115__bit_referenceINS_8__bitsetILm1ELm48EEELb1EEC2B8ue170006EPmm, symObjAddr: 0x118C, symBinAddr: 0x100003198, symSize: 0x2C }
  - { offsetInCU: 0xD749, offset: 0xD749, size: 0x8, addend: 0x0, symName: __ZNKSt3__112basic_stringIcNS_11char_traitsIcEENS_9allocatorIcEEE9__is_longB8ue170006Ev, symObjAddr: 0x11B8, symBinAddr: 0x1000031C4, symSize: 0x38 }
  - { offsetInCU: 0xD76E, offset: 0xD76E, size: 0x8, addend: 0x0, symName: __ZNKSt3__112basic_stringIcNS_11char_traitsIcEENS_9allocatorIcEEE15__get_long_sizeB8ue170006Ev, symObjAddr: 0x11F0, symBinAddr: 0x1000031FC, symSize: 0x28 }
  - { offsetInCU: 0xD793, offset: 0xD793, size: 0x8, addend: 0x0, symName: __ZNKSt3__112basic_stringIcNS_11char_traitsIcEENS_9allocatorIcEEE16__get_short_sizeB8ue170006Ev, symObjAddr: 0x1218, symBinAddr: 0x100003224, symSize: 0x34 }
  - { offsetInCU: 0xD7B8, offset: 0xD7B8, size: 0x8, addend: 0x0, symName: __ZNKSt3__117__compressed_pairINS_12basic_stringIcNS_11char_traitsIcEENS_9allocatorIcEEE5__repES5_E5firstB8ue170006Ev, symObjAddr: 0x124C, symBinAddr: 0x100003258, symSize: 0x24 }
  - { offsetInCU: 0xD7DD, offset: 0xD7DD, size: 0x8, addend: 0x0, symName: __ZNKSt3__122__compressed_pair_elemINS_12basic_stringIcNS_11char_traitsIcEENS_9allocatorIcEEE5__repELi0ELb0EE5__getB8ue170006Ev, symObjAddr: 0x1270, symBinAddr: 0x10000327C, symSize: 0x14 }
  - { offsetInCU: 0xD802, offset: 0xD802, size: 0x8, addend: 0x0, symName: __ZNSt3__16vectorINS_6bitsetILm64EEENS_9allocatorIS2_EEEC2B8ue170006Ev, symObjAddr: 0x1284, symBinAddr: 0x100003290, symSize: 0x4C }
  - { offsetInCU: 0xD835, offset: 0xD835, size: 0x8, addend: 0x0, symName: __ZNSt3__117__compressed_pairIPNS_6bitsetILm64EEENS_9allocatorIS2_EEEC1B8ue170006IDnNS_18__default_init_tagEEEOT_OT0_, symObjAddr: 0x12D0, symBinAddr: 0x1000032DC, symSize: 0x3C }
  - { offsetInCU: 0xD88C, offset: 0xD88C, size: 0x8, addend: 0x0, symName: __ZNSt3__117__compressed_pairIPNS_6bitsetILm64EEENS_9allocatorIS2_EEEC2B8ue170006IDnNS_18__default_init_tagEEEOT_OT0_, symObjAddr: 0x1318, symBinAddr: 0x100003324, symSize: 0x40 }
  - { offsetInCU: 0xD8E3, offset: 0xD8E3, size: 0x8, addend: 0x0, symName: __ZNSt3__122__compressed_pair_elemIPNS_6bitsetILm64EEELi0ELb0EEC2B8ue170006IDnvEEOT_, symObjAddr: 0x1358, symBinAddr: 0x100003364, symSize: 0x1C }
  - { offsetInCU: 0xD924, offset: 0xD924, size: 0x8, addend: 0x0, symName: __ZNSt3__122__compressed_pair_elemINS_9allocatorINS_6bitsetILm64EEEEELi1ELb1EEC2B8ue170006ENS_18__default_init_tagE, symObjAddr: 0x1374, symBinAddr: 0x100003380, symSize: 0x2C }
  - { offsetInCU: 0xD958, offset: 0xD958, size: 0x8, addend: 0x0, symName: __ZNSt3__19allocatorINS_6bitsetILm64EEEEC2B8ue170006Ev, symObjAddr: 0x13A0, symBinAddr: 0x1000033AC, symSize: 0x2C }
  - { offsetInCU: 0xD981, offset: 0xD981, size: 0x8, addend: 0x0, symName: __ZNSt3__116__non_trivial_ifILb1ENS_9allocatorINS_6bitsetILm64EEEEEEC2B8ue170006Ev, symObjAddr: 0x13CC, symBinAddr: 0x1000033D8, symSize: 0x14 }
  - { offsetInCU: 0xD9AA, offset: 0xD9AA, size: 0x8, addend: 0x0, symName: __ZNSt3__16vectorINS_6bitsetILm64EEENS_9allocatorIS2_EEED2B8ue170006Ev, symObjAddr: 0x13E0, symBinAddr: 0x1000033EC, symSize: 0x44 }
  - { offsetInCU: 0xD9D3, offset: 0xD9D3, size: 0x8, addend: 0x0, symName: __ZNSt3__16vectorINS_6bitsetILm64EEENS_9allocatorIS2_EEE16__destroy_vectorC1B8ue170006ERS5_, symObjAddr: 0x1424, symBinAddr: 0x100003430, symSize: 0x34 }
  - { offsetInCU: 0xDA0B, offset: 0xDA0B, size: 0x8, addend: 0x0, symName: __ZNSt3__16vectorINS_6bitsetILm64EEENS_9allocatorIS2_EEE16__destroy_vectorclB8ue170006Ev, symObjAddr: 0x1458, symBinAddr: 0x100003464, symSize: 0x90 }
  - { offsetInCU: 0xDA30, offset: 0xDA30, size: 0x8, addend: 0x0, symName: __ZNSt3__16vectorINS_6bitsetILm64EEENS_9allocatorIS2_EEE16__destroy_vectorC2B8ue170006ERS5_, symObjAddr: 0x14E8, symBinAddr: 0x1000034F4, symSize: 0x20 }
  - { offsetInCU: 0xDA68, offset: 0xDA68, size: 0x8, addend: 0x0, symName: __ZNSt3__16vectorINS_6bitsetILm64EEENS_9allocatorIS2_EEE7__clearB8ue170006Ev, symObjAddr: 0x1508, symBinAddr: 0x100003514, symSize: 0x28 }
  - { offsetInCU: 0xDA8D, offset: 0xDA8D, size: 0x8, addend: 0x0, symName: __ZNKSt3__16vectorINS_6bitsetILm64EEENS_9allocatorIS2_EEE17__annotate_deleteB8ue170006Ev, symObjAddr: 0x1530, symBinAddr: 0x10000353C, symSize: 0xB8 }
  - { offsetInCU: 0xDAB2, offset: 0xDAB2, size: 0x8, addend: 0x0, symName: __ZNSt3__116allocator_traitsINS_9allocatorINS_6bitsetILm64EEEEEE10deallocateB8ue170006ERS4_PS3_m, symObjAddr: 0x15E8, symBinAddr: 0x1000035F4, symSize: 0x34 }
  - { offsetInCU: 0xDAF4, offset: 0xDAF4, size: 0x8, addend: 0x0, symName: __ZNSt3__16vectorINS_6bitsetILm64EEENS_9allocatorIS2_EEE7__allocB8ue170006Ev, symObjAddr: 0x161C, symBinAddr: 0x100003628, symSize: 0x28 }
  - { offsetInCU: 0xDB19, offset: 0xDB19, size: 0x8, addend: 0x0, symName: __ZNKSt3__16vectorINS_6bitsetILm64EEENS_9allocatorIS2_EEE8capacityB8ue170006Ev, symObjAddr: 0x1644, symBinAddr: 0x100003650, symSize: 0x40 }
  - { offsetInCU: 0xDB3E, offset: 0xDB3E, size: 0x8, addend: 0x0, symName: __ZNSt3__16vectorINS_6bitsetILm64EEENS_9allocatorIS2_EEE22__base_destruct_at_endB8ue170006EPS2_, symObjAddr: 0x1684, symBinAddr: 0x100003690, symSize: 0x8C }
  - { offsetInCU: 0xDB81, offset: 0xDB81, size: 0x8, addend: 0x0, symName: __ZNSt3__116allocator_traitsINS_9allocatorINS_6bitsetILm64EEEEEE7destroyB8ue170006IS3_vEEvRS4_PT_, symObjAddr: 0x1710, symBinAddr: 0x10000371C, symSize: 0x2C }
  - { offsetInCU: 0xDBBE, offset: 0xDBBE, size: 0x8, addend: 0x0, symName: __ZNSt3__19allocatorINS_6bitsetILm64EEEE7destroyB8ue170006EPS2_, symObjAddr: 0x1750, symBinAddr: 0x10000375C, symSize: 0x14 }
  - { offsetInCU: 0xDBF1, offset: 0xDBF1, size: 0x8, addend: 0x0, symName: __ZNKSt3__16vectorINS_6bitsetILm64EEENS_9allocatorIS2_EEE31__annotate_contiguous_containerB8ue170006EPKvS7_S7_S7_, symObjAddr: 0x1764, symBinAddr: 0x100003770, symSize: 0x20 }
  - { offsetInCU: 0xDC42, offset: 0xDC42, size: 0x8, addend: 0x0, symName: __ZNKSt3__16vectorINS_6bitsetILm64EEENS_9allocatorIS2_EEE4dataB8ue170006Ev, symObjAddr: 0x1784, symBinAddr: 0x100003790, symSize: 0x28 }
  - { offsetInCU: 0xDC67, offset: 0xDC67, size: 0x8, addend: 0x0, symName: __ZNKSt3__16vectorINS_6bitsetILm64EEENS_9allocatorIS2_EEE4sizeB8ue170006Ev, symObjAddr: 0x17AC, symBinAddr: 0x1000037B8, symSize: 0x28 }
  - { offsetInCU: 0xDC8C, offset: 0xDC8C, size: 0x8, addend: 0x0, symName: __ZNSt3__19allocatorINS_6bitsetILm64EEEE10deallocateB8ue170006EPS2_m, symObjAddr: 0x17D4, symBinAddr: 0x1000037E0, symSize: 0x40 }
  - { offsetInCU: 0xDCCD, offset: 0xDCCD, size: 0x8, addend: 0x0, symName: __ZNSt3__117__compressed_pairIPNS_6bitsetILm64EEENS_9allocatorIS2_EEE6secondB8ue170006Ev, symObjAddr: 0x193C, symBinAddr: 0x100003948, symSize: 0x24 }
  - { offsetInCU: 0xDCF2, offset: 0xDCF2, size: 0x8, addend: 0x0, symName: __ZNSt3__122__compressed_pair_elemINS_9allocatorINS_6bitsetILm64EEEEELi1ELb1EE5__getB8ue170006Ev, symObjAddr: 0x1960, symBinAddr: 0x10000396C, symSize: 0x14 }
  - { offsetInCU: 0xDD17, offset: 0xDD17, size: 0x8, addend: 0x0, symName: __ZNKSt3__16vectorINS_6bitsetILm64EEENS_9allocatorIS2_EEE9__end_capB8ue170006Ev, symObjAddr: 0x1974, symBinAddr: 0x100003980, symSize: 0x28 }
  - { offsetInCU: 0xDD3C, offset: 0xDD3C, size: 0x8, addend: 0x0, symName: __ZNKSt3__117__compressed_pairIPNS_6bitsetILm64EEENS_9allocatorIS2_EEE5firstB8ue170006Ev, symObjAddr: 0x199C, symBinAddr: 0x1000039A8, symSize: 0x24 }
  - { offsetInCU: 0xDD61, offset: 0xDD61, size: 0x8, addend: 0x0, symName: __ZNKSt3__122__compressed_pair_elemIPNS_6bitsetILm64EEELi0ELb0EE5__getB8ue170006Ev, symObjAddr: 0x19C0, symBinAddr: 0x1000039CC, symSize: 0x14 }
  - { offsetInCU: 0xDD86, offset: 0xDD86, size: 0x8, addend: 0x0, symName: __ZNSt3__18__bitsetILm1ELm64EE10__make_refB8ue170006Em, symObjAddr: 0x19D4, symBinAddr: 0x1000039E0, symSize: 0x40 }
  - { offsetInCU: 0xDDBA, offset: 0xDDBA, size: 0x8, addend: 0x0, symName: __ZNSt3__115__bit_referenceINS_8__bitsetILm1ELm64EEELb1EEC1B8ue170006EPmm, symObjAddr: 0x1A14, symBinAddr: 0x100003A20, symSize: 0x3C }
  - { offsetInCU: 0xDDFF, offset: 0xDDFF, size: 0x8, addend: 0x0, symName: __ZNSt3__115__bit_referenceINS_8__bitsetILm1ELm64EEELb1EEC2B8ue170006EPmm, symObjAddr: 0x1A50, symBinAddr: 0x100003A5C, symSize: 0x2C }
  - { offsetInCU: 0xDE44, offset: 0xDE44, size: 0x8, addend: 0x0, symName: __ZNKSt3__112basic_stringIcNS_11char_traitsIcEENS_9allocatorIcEEE4dataB8ue170006Ev, symObjAddr: 0x1A7C, symBinAddr: 0x100003A88, symSize: 0x28 }
  - { offsetInCU: 0xDE69, offset: 0xDE69, size: 0x8, addend: 0x0, symName: __ZNKSt3__112basic_stringIcNS_11char_traitsIcEENS_9allocatorIcEEE13__get_pointerB8ue170006Ev, symObjAddr: 0x1AB8, symBinAddr: 0x100003AC4, symSize: 0x54 }
  - { offsetInCU: 0xDE8E, offset: 0xDE8E, size: 0x8, addend: 0x0, symName: __ZNKSt3__112basic_stringIcNS_11char_traitsIcEENS_9allocatorIcEEE18__get_long_pointerB8ue170006Ev, symObjAddr: 0x1B0C, symBinAddr: 0x100003B18, symSize: 0x28 }
  - { offsetInCU: 0xDEB3, offset: 0xDEB3, size: 0x8, addend: 0x0, symName: __ZNKSt3__112basic_stringIcNS_11char_traitsIcEENS_9allocatorIcEEE19__get_short_pointerB8ue170006Ev, symObjAddr: 0x1B34, symBinAddr: 0x100003B40, symSize: 0x28 }
  - { offsetInCU: 0xDED8, offset: 0xDED8, size: 0x8, addend: 0x0, symName: __ZNSt3__114pointer_traitsIPKcE10pointer_toB8ue170006ERS1_, symObjAddr: 0x1B5C, symBinAddr: 0x100003B68, symSize: 0x14 }
  - { offsetInCU: 0xDEFB, offset: 0xDEFB, size: 0x8, addend: 0x0, symName: __ZNSt3__16vectorINS_6bitsetILm64EEENS_9allocatorIS2_EEE9__end_capB8ue170006Ev, symObjAddr: 0x1B70, symBinAddr: 0x100003B7C, symSize: 0x28 }
  - { offsetInCU: 0xDF20, offset: 0xDF20, size: 0x8, addend: 0x0, symName: __ZNSt3__16vectorINS_6bitsetILm64EEENS_9allocatorIS2_EEE22__construct_one_at_endB8ue170006IJRKS2_EEEvDpOT_, symObjAddr: 0x1B98, symBinAddr: 0x100003BA4, symSize: 0x90 }
  - { offsetInCU: 0xDF6D, offset: 0xDF6D, size: 0x8, addend: 0x0, symName: __ZNSt3__16vectorINS_6bitsetILm64EEENS_9allocatorIS2_EEE21__push_back_slow_pathIRKS2_EEvOT_, symObjAddr: 0x1C28, symBinAddr: 0x100003C34, symSize: 0xD8 }
  - { offsetInCU: 0xDFCA, offset: 0xDFCA, size: 0x8, addend: 0x0, symName: __ZNSt3__117__compressed_pairIPNS_6bitsetILm64EEENS_9allocatorIS2_EEE5firstB8ue170006Ev, symObjAddr: 0x1D00, symBinAddr: 0x100003D0C, symSize: 0x24 }
  - { offsetInCU: 0xDFEF, offset: 0xDFEF, size: 0x8, addend: 0x0, symName: __ZNSt3__122__compressed_pair_elemIPNS_6bitsetILm64EEELi0ELb0EE5__getB8ue170006Ev, symObjAddr: 0x1D24, symBinAddr: 0x100003D30, symSize: 0x14 }
  - { offsetInCU: 0xE02D, offset: 0xE02D, size: 0x8, addend: 0x0, symName: __ZNSt3__16vectorINS_6bitsetILm64EEENS_9allocatorIS2_EEE21_ConstructTransactionC1B8ue170006ERS5_m, symObjAddr: 0x1D38, symBinAddr: 0x100003D44, symSize: 0x3C }
  - { offsetInCU: 0xE074, offset: 0xE074, size: 0x8, addend: 0x0, symName: __ZNSt3__116allocator_traitsINS_9allocatorINS_6bitsetILm64EEEEEE9constructB8ue170006IS3_JRKS3_EvEEvRS4_PT_DpOT0_, symObjAddr: 0x1D74, symBinAddr: 0x100003D80, symSize: 0x34 }
  - { offsetInCU: 0xE0CB, offset: 0xE0CB, size: 0x8, addend: 0x0, symName: __ZNSt3__16vectorINS_6bitsetILm64EEENS_9allocatorIS2_EEE21_ConstructTransactionD1B8ue170006Ev, symObjAddr: 0x1DA8, symBinAddr: 0x100003DB4, symSize: 0x2C }
  - { offsetInCU: 0xE0F4, offset: 0xE0F4, size: 0x8, addend: 0x0, symName: __ZNSt3__16vectorINS_6bitsetILm64EEENS_9allocatorIS2_EEE21_ConstructTransactionC2B8ue170006ERS5_m, symObjAddr: 0x1DD4, symBinAddr: 0x100003DE0, symSize: 0x44 }
  - { offsetInCU: 0xE13B, offset: 0xE13B, size: 0x8, addend: 0x0, symName: __ZNSt3__19allocatorINS_6bitsetILm64EEEE9constructB8ue170006IS2_JRKS2_EEEvPT_DpOT0_, symObjAddr: 0x1E18, symBinAddr: 0x100003E24, symSize: 0x28 }
  - { offsetInCU: 0xE190, offset: 0xE190, size: 0x8, addend: 0x0, symName: __ZNSt3__16vectorINS_6bitsetILm64EEENS_9allocatorIS2_EEE21_ConstructTransactionD2B8ue170006Ev, symObjAddr: 0x1E40, symBinAddr: 0x100003E4C, symSize: 0x20 }
  - { offsetInCU: 0xE1B8, offset: 0xE1B8, size: 0x8, addend: 0x0, symName: __ZNKSt3__16vectorINS_6bitsetILm64EEENS_9allocatorIS2_EEE11__recommendB8ue170006Em, symObjAddr: 0x1E60, symBinAddr: 0x100003E6C, symSize: 0xB4 }
  - { offsetInCU: 0xE20C, offset: 0xE20C, size: 0x8, addend: 0x0, symName: __ZNSt3__114__split_bufferINS_6bitsetILm64EEERNS_9allocatorIS2_EEEC1EmmS5_, symObjAddr: 0x1F14, symBinAddr: 0x100003F20, symSize: 0x44 }
  - { offsetInCU: 0xE261, offset: 0xE261, size: 0x8, addend: 0x0, symName: __ZNSt3__114__split_bufferINS_6bitsetILm64EEERNS_9allocatorIS2_EEED1Ev, symObjAddr: 0x2068, symBinAddr: 0x100004074, symSize: 0x2C }
  - { offsetInCU: 0xE28B, offset: 0xE28B, size: 0x8, addend: 0x0, symName: __ZNKSt3__16vectorINS_6bitsetILm64EEENS_9allocatorIS2_EEE8max_sizeEv, symObjAddr: 0x2094, symBinAddr: 0x1000040A0, symSize: 0x60 }
  - { offsetInCU: 0xE2B2, offset: 0xE2B2, size: 0x8, addend: 0x0, symName: __ZNKSt3__16vectorINS_6bitsetILm64EEENS_9allocatorIS2_EEE20__throw_length_errorB8ue170006Ev, symObjAddr: 0x20F4, symBinAddr: 0x100004100, symSize: 0x1C }
  - { offsetInCU: 0xE2E1, offset: 0xE2E1, size: 0x8, addend: 0x0, symName: __ZNSt3__116allocator_traitsINS_9allocatorINS_6bitsetILm64EEEEEE8max_sizeB8ue170006IS4_vEEmRKS4_, symObjAddr: 0x2168, symBinAddr: 0x100004174, symSize: 0x24 }
  - { offsetInCU: 0xE30F, offset: 0xE30F, size: 0x8, addend: 0x0, symName: __ZNKSt3__16vectorINS_6bitsetILm64EEENS_9allocatorIS2_EEE7__allocB8ue170006Ev, symObjAddr: 0x218C, symBinAddr: 0x100004198, symSize: 0x28 }
  - { offsetInCU: 0xE334, offset: 0xE334, size: 0x8, addend: 0x0, symName: __ZNSt3__114numeric_limitsIlE3maxB8ue170006Ev, symObjAddr: 0x21B4, symBinAddr: 0x1000041C0, symSize: 0x14 }
  - { offsetInCU: 0xE357, offset: 0xE357, size: 0x8, addend: 0x0, symName: __ZNKSt3__16__lessIvvEclB8ue170006ImmEEbRKT_RKT0_, symObjAddr: 0x221C, symBinAddr: 0x100004228, symSize: 0x34 }
  - { offsetInCU: 0xE3AA, offset: 0xE3AA, size: 0x8, addend: 0x0, symName: __ZNKSt3__19allocatorINS_6bitsetILm64EEEE8max_sizeB8ue170006Ev, symObjAddr: 0x2250, symBinAddr: 0x10000425C, symSize: 0x14 }
  - { offsetInCU: 0xE3CF, offset: 0xE3CF, size: 0x8, addend: 0x0, symName: __ZNKSt3__117__compressed_pairIPNS_6bitsetILm64EEENS_9allocatorIS2_EEE6secondB8ue170006Ev, symObjAddr: 0x2264, symBinAddr: 0x100004270, symSize: 0x24 }
  - { offsetInCU: 0xE3F4, offset: 0xE3F4, size: 0x8, addend: 0x0, symName: __ZNKSt3__122__compressed_pair_elemINS_9allocatorINS_6bitsetILm64EEEEELi1ELb1EE5__getB8ue170006Ev, symObjAddr: 0x2288, symBinAddr: 0x100004294, symSize: 0x14 }
  - { offsetInCU: 0xE419, offset: 0xE419, size: 0x8, addend: 0x0, symName: __ZNSt3__123__libcpp_numeric_limitsIlLb1EE3maxB8ue170006Ev, symObjAddr: 0x229C, symBinAddr: 0x1000042A8, symSize: 0x8 }
  - { offsetInCU: 0xE42D, offset: 0xE42D, size: 0x8, addend: 0x0, symName: __ZNSt12length_errorC1B8ue170006EPKc, symObjAddr: 0x2308, symBinAddr: 0x100004314, symSize: 0x34 }
  - { offsetInCU: 0xE464, offset: 0xE464, size: 0x8, addend: 0x0, symName: __ZNSt12length_errorC2B8ue170006EPKc, symObjAddr: 0x233C, symBinAddr: 0x100004348, symSize: 0x4C }
  - { offsetInCU: 0xE49B, offset: 0xE49B, size: 0x8, addend: 0x0, symName: __ZNSt3__114__split_bufferINS_6bitsetILm64EEERNS_9allocatorIS2_EEEC2EmmS5_, symObjAddr: 0x23DC, symBinAddr: 0x1000043E8, symSize: 0xD4 }
  - { offsetInCU: 0xE50D, offset: 0xE50D, size: 0x8, addend: 0x0, symName: __ZNSt3__117__compressed_pairIPNS_6bitsetILm64EEERNS_9allocatorIS2_EEEC1B8ue170006IDnS6_EEOT_OT0_, symObjAddr: 0x24B0, symBinAddr: 0x1000044BC, symSize: 0x3C }
  - { offsetInCU: 0xE564, offset: 0xE564, size: 0x8, addend: 0x0, symName: __ZNSt3__114__split_bufferINS_6bitsetILm64EEERNS_9allocatorIS2_EEE7__allocB8ue170006Ev, symObjAddr: 0x252C, symBinAddr: 0x100004538, symSize: 0x28 }
  - { offsetInCU: 0xE589, offset: 0xE589, size: 0x8, addend: 0x0, symName: __ZNSt3__114__split_bufferINS_6bitsetILm64EEERNS_9allocatorIS2_EEE9__end_capB8ue170006Ev, symObjAddr: 0x2554, symBinAddr: 0x100004560, symSize: 0x28 }
  - { offsetInCU: 0xE5AE, offset: 0xE5AE, size: 0x8, addend: 0x0, symName: __ZNSt3__117__compressed_pairIPNS_6bitsetILm64EEERNS_9allocatorIS2_EEEC2B8ue170006IDnS6_EEOT_OT0_, symObjAddr: 0x257C, symBinAddr: 0x100004588, symSize: 0x48 }
  - { offsetInCU: 0xE605, offset: 0xE605, size: 0x8, addend: 0x0, symName: __ZNSt3__122__compressed_pair_elemIRNS_9allocatorINS_6bitsetILm64EEEEELi1ELb0EEC2B8ue170006IS5_vEEOT_, symObjAddr: 0x25C4, symBinAddr: 0x1000045D0, symSize: 0x20 }
  - { offsetInCU: 0xE646, offset: 0xE646, size: 0x8, addend: 0x0, symName: __ZNSt3__19allocatorINS_6bitsetILm64EEEE8allocateB8ue170006Em, symObjAddr: 0x25E4, symBinAddr: 0x1000045F0, symSize: 0x58 }
  - { offsetInCU: 0xE679, offset: 0xE679, size: 0x8, addend: 0x0, symName: __ZNSt3__117__compressed_pairIPNS_6bitsetILm64EEERNS_9allocatorIS2_EEE6secondB8ue170006Ev, symObjAddr: 0x2720, symBinAddr: 0x10000472C, symSize: 0x28 }
  - { offsetInCU: 0xE69E, offset: 0xE69E, size: 0x8, addend: 0x0, symName: __ZNSt3__122__compressed_pair_elemIRNS_9allocatorINS_6bitsetILm64EEEEELi1ELb0EE5__getB8ue170006Ev, symObjAddr: 0x2748, symBinAddr: 0x100004754, symSize: 0x18 }
  - { offsetInCU: 0xE6C3, offset: 0xE6C3, size: 0x8, addend: 0x0, symName: __ZNSt3__117__compressed_pairIPNS_6bitsetILm64EEERNS_9allocatorIS2_EEE5firstB8ue170006Ev, symObjAddr: 0x2760, symBinAddr: 0x10000476C, symSize: 0x24 }
  - { offsetInCU: 0xE6E8, offset: 0xE6E8, size: 0x8, addend: 0x0, symName: __ZNSt3__116reverse_iteratorIPNS_6bitsetILm64EEEEC1B8ue170006ES3_, symObjAddr: 0x27FC, symBinAddr: 0x100004808, symSize: 0x34 }
  - { offsetInCU: 0xE71F, offset: 0xE71F, size: 0x8, addend: 0x0, symName: __ZNKSt3__116reverse_iteratorIPNS_6bitsetILm64EEEE4baseB8ue170006Ev, symObjAddr: 0x2830, symBinAddr: 0x10000483C, symSize: 0x18 }
  - { offsetInCU: 0xE744, offset: 0xE744, size: 0x8, addend: 0x0, symName: __ZNKSt3__16vectorINS_6bitsetILm64EEENS_9allocatorIS2_EEE14__annotate_newB8ue170006Em, symObjAddr: 0x2884, symBinAddr: 0x100004890, symSize: 0xAC }
  - { offsetInCU: 0xE79B, offset: 0xE79B, size: 0x8, addend: 0x0, symName: __ZNKSt3__111__move_loopINS_17_ClassicAlgPolicyEEclB8ue170006INS_16reverse_iteratorIPNS_6bitsetILm64EEEEES8_S8_EENS_4pairIT_T1_EESA_T0_SB_, symObjAddr: 0x2C20, symBinAddr: 0x100004C2C, symSize: 0xA0 }
  - { offsetInCU: 0xE80A, offset: 0xE80A, size: 0x8, addend: 0x0, symName: __ZNSt3__18_IterOpsINS_17_ClassicAlgPolicyEE11__iter_moveB8ue170006IRNS_16reverse_iteratorIPNS_6bitsetILm64EEEEEEENS_9enable_ifIXsr12is_referenceIDTdeclsr3stdE7declvalIRT_EEEEE5valueEDTclsr3stdE4movedeclsr3stdE7declvalISC_EEEEE4typeEOSB_, symObjAddr: 0x2E54, symBinAddr: 0x100004E60, symSize: 0x28 }
  - { offsetInCU: 0xE836, offset: 0xE836, size: 0x8, addend: 0x0, symName: __ZNKSt3__116reverse_iteratorIPNS_6bitsetILm64EEEEdeB8ue170006Ev, symObjAddr: 0x2E7C, symBinAddr: 0x100004E88, symSize: 0x28 }
  - { offsetInCU: 0xE869, offset: 0xE869, size: 0x8, addend: 0x0, symName: __ZNSt3__116reverse_iteratorIPNS_6bitsetILm64EEEEppB8ue170006Ev, symObjAddr: 0x2EA4, symBinAddr: 0x100004EB0, symSize: 0x20 }
  - { offsetInCU: 0xE88E, offset: 0xE88E, size: 0x8, addend: 0x0, symName: __ZNSt3__18_IterOpsINS_17_ClassicAlgPolicyEE25__validate_iter_referenceB8ue170006IRNS_16reverse_iteratorIPNS_6bitsetILm64EEEEEEEvv, symObjAddr: 0x2EC4, symBinAddr: 0x100004ED0, symSize: 0x4 }
  - { offsetInCU: 0xE8AC, offset: 0xE8AC, size: 0x8, addend: 0x0, symName: __ZNSt3__118__unwrap_iter_implINS_16reverse_iteratorIPNS_6bitsetILm64EEEEELb0EE8__unwrapB8ue170006ES5_, symObjAddr: 0x2EC8, symBinAddr: 0x100004ED4, symSize: 0x24 }
  - { offsetInCU: 0xE8D4, offset: 0xE8D4, size: 0x8, addend: 0x0, symName: __ZNSt3__14pairINS_16reverse_iteratorIPNS_6bitsetILm64EEEEES5_EC1B8ue170006IS5_S5_LPv0EEEOT_OT0_, symObjAddr: 0x2EEC, symBinAddr: 0x100004EF8, symSize: 0x3C }
  - { offsetInCU: 0xE931, offset: 0xE931, size: 0x8, addend: 0x0, symName: __ZNSt3__14pairINS_16reverse_iteratorIPNS_6bitsetILm64EEEEES5_EC2B8ue170006IS5_S5_LPv0EEEOT_OT0_, symObjAddr: 0x2F28, symBinAddr: 0x100004F34, symSize: 0x34 }
  - { offsetInCU: 0xE98E, offset: 0xE98E, size: 0x8, addend: 0x0, symName: __ZNSt3__118__unwrap_iter_implINS_16reverse_iteratorIPNS_6bitsetILm64EEEEELb0EE8__rewrapB8ue170006ES5_S5_, symObjAddr: 0x2F5C, symBinAddr: 0x100004F68, symSize: 0x2C }
  - { offsetInCU: 0xE9BC, offset: 0xE9BC, size: 0x8, addend: 0x0, symName: __ZNSt3__116reverse_iteratorIPNS_6bitsetILm64EEEEC2B8ue170006ES3_, symObjAddr: 0x2F88, symBinAddr: 0x100004F94, symSize: 0x28 }
  - { offsetInCU: 0xE9F3, offset: 0xE9F3, size: 0x8, addend: 0x0, symName: __ZNSt3__114__split_bufferINS_6bitsetILm64EEERNS_9allocatorIS2_EEED2Ev, symObjAddr: 0x2FB0, symBinAddr: 0x100004FBC, symSize: 0x8C }
  - { offsetInCU: 0xEA1E, offset: 0xEA1E, size: 0x8, addend: 0x0, symName: __ZNSt3__114__split_bufferINS_6bitsetILm64EEERNS_9allocatorIS2_EEE5clearB8ue170006Ev, symObjAddr: 0x303C, symBinAddr: 0x100005048, symSize: 0x28 }
  - { offsetInCU: 0xEA43, offset: 0xEA43, size: 0x8, addend: 0x0, symName: __ZNKSt3__114__split_bufferINS_6bitsetILm64EEERNS_9allocatorIS2_EEE8capacityB8ue170006Ev, symObjAddr: 0x3064, symBinAddr: 0x100005070, symSize: 0x40 }
  - { offsetInCU: 0xEA68, offset: 0xEA68, size: 0x8, addend: 0x0, symName: __ZNSt3__114__split_bufferINS_6bitsetILm64EEERNS_9allocatorIS2_EEE17__destruct_at_endB8ue170006EPS2_, symObjAddr: 0x30A4, symBinAddr: 0x1000050B0, symSize: 0x2C }
  - { offsetInCU: 0xEA9A, offset: 0xEA9A, size: 0x8, addend: 0x0, symName: __ZNSt3__114__split_bufferINS_6bitsetILm64EEERNS_9allocatorIS2_EEE17__destruct_at_endB8ue170006EPS2_NS_17integral_constantIbLb0EEE, symObjAddr: 0x30D0, symBinAddr: 0x1000050DC, symSize: 0x80 }
  - { offsetInCU: 0xEADA, offset: 0xEADA, size: 0x8, addend: 0x0, symName: __ZNKSt3__114__split_bufferINS_6bitsetILm64EEERNS_9allocatorIS2_EEE9__end_capB8ue170006Ev, symObjAddr: 0x3150, symBinAddr: 0x10000515C, symSize: 0x28 }
  - { offsetInCU: 0xEAFF, offset: 0xEAFF, size: 0x8, addend: 0x0, symName: __ZNKSt3__117__compressed_pairIPNS_6bitsetILm64EEERNS_9allocatorIS2_EEE5firstB8ue170006Ev, symObjAddr: 0x3178, symBinAddr: 0x100005184, symSize: 0x24 }
  - { offsetInCU: 0xEB24, offset: 0xEB24, size: 0x8, addend: 0x0, symName: __ZNSt3__18__bitsetILm1ELm64EE11__make_iterB8ue170006Em, symObjAddr: 0x3230, symBinAddr: 0x10000523C, symSize: 0x60 }
  - { offsetInCU: 0xEB58, offset: 0xEB58, size: 0x8, addend: 0x0, symName: __ZNSt3__114__bit_iteratorINS_8__bitsetILm1ELm64EEELb0ELm0EEC1B8ue170006ERKS3_, symObjAddr: 0x33F0, symBinAddr: 0x1000053FC, symSize: 0x34 }
  - { offsetInCU: 0xEB90, offset: 0xEB90, size: 0x8, addend: 0x0, symName: __ZNSt3__114__bit_iteratorINS_8__bitsetILm1ELm64EEELb0ELm0EEC2B8ue170006ERKS3_, symObjAddr: 0x3650, symBinAddr: 0x10000565C, symSize: 0x30 }
  - { offsetInCU: 0xEBC8, offset: 0xEBC8, size: 0x8, addend: 0x0, symName: __ZNSt3__114__bit_iteratorINS_8__bitsetILm1ELm64EEELb0ELm0EEC1B8ue170006EPmj, symObjAddr: 0x3728, symBinAddr: 0x100005734, symSize: 0x3C }
  - { offsetInCU: 0xEC0F, offset: 0xEC0F, size: 0x8, addend: 0x0, symName: __ZNSt3__114__bit_iteratorINS_8__bitsetILm1ELm64EEELb0ELm0EEC2B8ue170006EPmj, symObjAddr: 0x3764, symBinAddr: 0x100005770, symSize: 0x2C }
  - { offsetInCU: 0xEC56, offset: 0xEC56, size: 0x8, addend: 0x0, symName: __ZNSt3__112basic_stringIcNS_11char_traitsIcEENS_9allocatorIcEEEC2B8ue170006ILi0EEEPKc, symObjAddr: 0x3790, symBinAddr: 0x10000579C, symSize: 0x58 }
  - { offsetInCU: 0xEC94, offset: 0xEC94, size: 0x8, addend: 0x0, symName: __ZNSt3__117__compressed_pairINS_12basic_stringIcNS_11char_traitsIcEENS_9allocatorIcEEE5__repES5_EC1B8ue170006INS_18__default_init_tagESA_EEOT_OT0_, symObjAddr: 0x37E8, symBinAddr: 0x1000057F4, symSize: 0x3C }
  - { offsetInCU: 0xECEB, offset: 0xECEB, size: 0x8, addend: 0x0, symName: __ZNSt3__111char_traitsIcE6lengthB8ue170006EPKc, symObjAddr: 0x3824, symBinAddr: 0x100005830, symSize: 0x34 }
  - { offsetInCU: 0xED0E, offset: 0xED0E, size: 0x8, addend: 0x0, symName: __ZNSt3__117__compressed_pairINS_12basic_stringIcNS_11char_traitsIcEENS_9allocatorIcEEE5__repES5_EC2B8ue170006INS_18__default_init_tagESA_EEOT_OT0_, symObjAddr: 0x3858, symBinAddr: 0x100005864, symSize: 0x3C }
  - { offsetInCU: 0xED65, offset: 0xED65, size: 0x8, addend: 0x0, symName: __ZNSt3__122__compressed_pair_elemINS_12basic_stringIcNS_11char_traitsIcEENS_9allocatorIcEEE5__repELi0ELb0EEC2B8ue170006ENS_18__default_init_tagE, symObjAddr: 0x3894, symBinAddr: 0x1000058A0, symSize: 0x14 }
  - { offsetInCU: 0xED99, offset: 0xED99, size: 0x8, addend: 0x0, symName: __ZNSt3__122__compressed_pair_elemINS_9allocatorIcEELi1ELb1EEC2B8ue170006ENS_18__default_init_tagE, symObjAddr: 0x38A8, symBinAddr: 0x1000058B4, symSize: 0x2C }
  - { offsetInCU: 0xEDCD, offset: 0xEDCD, size: 0x8, addend: 0x0, symName: __ZNSt3__19allocatorIcEC2B8ue170006Ev, symObjAddr: 0x38D4, symBinAddr: 0x1000058E0, symSize: 0x2C }
  - { offsetInCU: 0xEDF6, offset: 0xEDF6, size: 0x8, addend: 0x0, symName: __ZNSt3__116__non_trivial_ifILb1ENS_9allocatorIcEEEC2B8ue170006Ev, symObjAddr: 0x3900, symBinAddr: 0x10000590C, symSize: 0x14 }
  - { offsetInCU: 0xEE1F, offset: 0xEE1F, size: 0x8, addend: 0x0, symName: __ZNKSt3__18__bitsetILm1ELm64EE11__make_iterB8ue170006Em, symObjAddr: 0x3AA8, symBinAddr: 0x100005AB4, symSize: 0x58 }
  - { offsetInCU: 0xEE53, offset: 0xEE53, size: 0x8, addend: 0x0, symName: __ZNSt3__114__bit_iteratorINS_8__bitsetILm1ELm64EEELb1ELm0EEC1B8ue170006EPKmj, symObjAddr: 0x3B30, symBinAddr: 0x100005B3C, symSize: 0x3C }
  - { offsetInCU: 0xEE9A, offset: 0xEE9A, size: 0x8, addend: 0x0, symName: __ZNSt3__114__bit_iteratorINS_8__bitsetILm1ELm64EEELb1ELm0EEC2B8ue170006EPKmj, symObjAddr: 0x3B6C, symBinAddr: 0x100005B78, symSize: 0x2C }
  - { offsetInCU: 0xEEFF, offset: 0xEEFF, size: 0x8, addend: 0x0, symName: __ZNKSt3__113basic_ostreamIcNS_11char_traitsIcEEE6sentrycvbB8ue170006Ev, symObjAddr: 0x3D84, symBinAddr: 0x100005D90, symSize: 0x1C }
  - { offsetInCU: 0xEF24, offset: 0xEF24, size: 0x8, addend: 0x0, symName: __ZNSt3__119ostreambuf_iteratorIcNS_11char_traitsIcEEEC1B8ue170006ERNS_13basic_ostreamIcS2_EE, symObjAddr: 0x3FE0, symBinAddr: 0x100005FEC, symSize: 0x34 }
  - { offsetInCU: 0xEF5B, offset: 0xEF5B, size: 0x8, addend: 0x0, symName: __ZNKSt3__18ios_base5flagsB8ue170006Ev, symObjAddr: 0x4014, symBinAddr: 0x100006020, symSize: 0x18 }
  - { offsetInCU: 0xEF81, offset: 0xEF81, size: 0x8, addend: 0x0, symName: __ZNKSt3__19basic_iosIcNS_11char_traitsIcEEE4fillB8ue170006Ev, symObjAddr: 0x402C, symBinAddr: 0x100006038, symSize: 0x64 }
  - { offsetInCU: 0xEFA8, offset: 0xEFA8, size: 0x8, addend: 0x0, symName: __ZNKSt3__119ostreambuf_iteratorIcNS_11char_traitsIcEEE6failedB8ue170006Ev, symObjAddr: 0x4090, symBinAddr: 0x10000609C, symSize: 0x24 }
  - { offsetInCU: 0xEFCD, offset: 0xEFCD, size: 0x8, addend: 0x0, symName: __ZNSt3__19basic_iosIcNS_11char_traitsIcEEE8setstateB8ue170006Ej, symObjAddr: 0x40B4, symBinAddr: 0x1000060C0, symSize: 0x2C }
  - { offsetInCU: 0xF001, offset: 0xF001, size: 0x8, addend: 0x0, symName: __ZNKSt3__18ios_base5widthB8ue170006Ev, symObjAddr: 0x40E0, symBinAddr: 0x1000060EC, symSize: 0x18 }
  - { offsetInCU: 0xF028, offset: 0xF028, size: 0x8, addend: 0x0, symName: __ZNSt3__115basic_streambufIcNS_11char_traitsIcEEE5sputnB8ue170006EPKcl, symObjAddr: 0x40F8, symBinAddr: 0x100006104, symSize: 0x3C }
  - { offsetInCU: 0xF069, offset: 0xF069, size: 0x8, addend: 0x0, symName: __ZNSt3__112basic_stringIcNS_11char_traitsIcEENS_9allocatorIcEEEC1B8ue170006Emc, symObjAddr: 0x4134, symBinAddr: 0x100006140, symSize: 0x3C }
  - { offsetInCU: 0xF0B0, offset: 0xF0B0, size: 0x8, addend: 0x0, symName: __ZNSt3__112basic_stringIcNS_11char_traitsIcEENS_9allocatorIcEEE4dataB8ue170006Ev, symObjAddr: 0x4170, symBinAddr: 0x10000617C, symSize: 0x28 }
  - { offsetInCU: 0xF0D5, offset: 0xF0D5, size: 0x8, addend: 0x0, symName: __ZNSt3__18ios_base5widthB8ue170006El, symObjAddr: 0x4198, symBinAddr: 0x1000061A4, symSize: 0x2C }
  - { offsetInCU: 0xF11A, offset: 0xF11A, size: 0x8, addend: 0x0, symName: __ZNSt3__112basic_stringIcNS_11char_traitsIcEENS_9allocatorIcEEEC2B8ue170006Emc, symObjAddr: 0x41C4, symBinAddr: 0x1000061D0, symSize: 0x4C }
  - { offsetInCU: 0xF161, offset: 0xF161, size: 0x8, addend: 0x0, symName: __ZNSt3__112basic_stringIcNS_11char_traitsIcEENS_9allocatorIcEEE13__get_pointerB8ue170006Ev, symObjAddr: 0x4224, symBinAddr: 0x100006230, symSize: 0x54 }
  - { offsetInCU: 0xF186, offset: 0xF186, size: 0x8, addend: 0x0, symName: __ZNSt3__112basic_stringIcNS_11char_traitsIcEENS_9allocatorIcEEE18__get_long_pointerB8ue170006Ev, symObjAddr: 0x4278, symBinAddr: 0x100006284, symSize: 0x28 }
  - { offsetInCU: 0xF1AB, offset: 0xF1AB, size: 0x8, addend: 0x0, symName: __ZNSt3__112basic_stringIcNS_11char_traitsIcEENS_9allocatorIcEEE19__get_short_pointerB8ue170006Ev, symObjAddr: 0x42A0, symBinAddr: 0x1000062AC, symSize: 0x28 }
  - { offsetInCU: 0xF1D0, offset: 0xF1D0, size: 0x8, addend: 0x0, symName: __ZNSt3__117__compressed_pairINS_12basic_stringIcNS_11char_traitsIcEENS_9allocatorIcEEE5__repES5_E5firstB8ue170006Ev, symObjAddr: 0x42C8, symBinAddr: 0x1000062D4, symSize: 0x24 }
  - { offsetInCU: 0xF1F5, offset: 0xF1F5, size: 0x8, addend: 0x0, symName: __ZNSt3__122__compressed_pair_elemINS_12basic_stringIcNS_11char_traitsIcEENS_9allocatorIcEEE5__repELi0ELb0EE5__getB8ue170006Ev, symObjAddr: 0x42EC, symBinAddr: 0x1000062F8, symSize: 0x14 }
  - { offsetInCU: 0xF21A, offset: 0xF21A, size: 0x8, addend: 0x0, symName: __ZNSt3__114pointer_traitsIPcE10pointer_toB8ue170006ERc, symObjAddr: 0x4300, symBinAddr: 0x10000630C, symSize: 0x14 }
  - { offsetInCU: 0xF23D, offset: 0xF23D, size: 0x8, addend: 0x0, symName: __ZNSt3__119ostreambuf_iteratorIcNS_11char_traitsIcEEEC2B8ue170006ERNS_13basic_ostreamIcS2_EE, symObjAddr: 0x4314, symBinAddr: 0x100006320, symSize: 0x54 }
  - { offsetInCU: 0xF273, offset: 0xF273, size: 0x8, addend: 0x0, symName: __ZNKSt3__19basic_iosIcNS_11char_traitsIcEEE5rdbufB8ue170006Ev, symObjAddr: 0x4368, symBinAddr: 0x100006374, symSize: 0x24 }
  - { offsetInCU: 0xF29A, offset: 0xF29A, size: 0x8, addend: 0x0, symName: __ZNKSt3__18ios_base5rdbufB8ue170006Ev, symObjAddr: 0x438C, symBinAddr: 0x100006398, symSize: 0x18 }
  - { offsetInCU: 0xF2BF, offset: 0xF2BF, size: 0x8, addend: 0x0, symName: __ZNSt3__111char_traitsIcE11eq_int_typeB8ue170006Eii, symObjAddr: 0x43A4, symBinAddr: 0x1000063B0, symSize: 0x28 }
  - { offsetInCU: 0xF2F2, offset: 0xF2F2, size: 0x8, addend: 0x0, symName: __ZNSt3__111char_traitsIcE3eofB8ue170006Ev, symObjAddr: 0x43CC, symBinAddr: 0x1000063D8, symSize: 0x8 }
  - { offsetInCU: 0xF305, offset: 0xF305, size: 0x8, addend: 0x0, symName: __ZNKSt3__19basic_iosIcNS_11char_traitsIcEEE5widenB8ue170006Ec, symObjAddr: 0x43D4, symBinAddr: 0x1000063E0, symSize: 0x84 }
  - { offsetInCU: 0xF372, offset: 0xF372, size: 0x8, addend: 0x0, symName: __ZNKSt3__15ctypeIcE5widenB8ue170006Ec, symObjAddr: 0x4484, symBinAddr: 0x100006490, symSize: 0x38 }
  - { offsetInCU: 0xF3A5, offset: 0xF3A5, size: 0x8, addend: 0x0, symName: __ZNSt3__18ios_base8setstateB8ue170006Ej, symObjAddr: 0x44BC, symBinAddr: 0x1000064C8, symSize: 0x34 }
  - { offsetInCU: 0xF3DB, offset: 0xF3DB, size: 0x8, addend: 0x0, symName: __ZNSt3__16vectorINS_6bitsetILm64EEENS_9allocatorIS2_EEE11__make_iterB8ue170006EPS2_, symObjAddr: 0x44F0, symBinAddr: 0x1000064FC, symSize: 0x30 }
  - { offsetInCU: 0xF40F, offset: 0xF40F, size: 0x8, addend: 0x0, symName: __ZNSt3__111__wrap_iterIPNS_6bitsetILm64EEEEC1B8ue170006ES3_, symObjAddr: 0x4520, symBinAddr: 0x10000652C, symSize: 0x34 }
  - { offsetInCU: 0xF446, offset: 0xF446, size: 0x8, addend: 0x0, symName: __ZNSt3__111__wrap_iterIPNS_6bitsetILm64EEEEC2B8ue170006ES3_, symObjAddr: 0x4554, symBinAddr: 0x100006560, symSize: 0x20 }
  - { offsetInCU: 0xF47C, offset: 0xF47C, size: 0x8, addend: 0x0, symName: __ZNKSt3__16bitsetILm64EE9to_stringB8ue170006IcNS_11char_traitsIcEENS_9allocatorIcEEEENS_12basic_stringIT_T0_T1_EES8_S8_, symObjAddr: 0x4574, symBinAddr: 0x100006580, symSize: 0x138 }
  - { offsetInCU: 0xF501, offset: 0xF501, size: 0x8, addend: 0x0, symName: __ZNKSt3__16bitsetILm64EEixB8ue170006Em, symObjAddr: 0x46AC, symBinAddr: 0x1000066B8, symSize: 0x3C }
  - { offsetInCU: 0xF535, offset: 0xF535, size: 0x8, addend: 0x0, symName: __ZNKSt3__121__bit_const_referenceINS_8__bitsetILm1ELm64EEEEcvbB8ue170006Ev, symObjAddr: 0x46E8, symBinAddr: 0x1000066F4, symSize: 0x2C }
  - { offsetInCU: 0xF55A, offset: 0xF55A, size: 0x8, addend: 0x0, symName: __ZNSt3__112basic_stringIcNS_11char_traitsIcEENS_9allocatorIcEEEixB8ue170006Em, symObjAddr: 0x4714, symBinAddr: 0x100006720, symSize: 0x30 }
  - { offsetInCU: 0xF58E, offset: 0xF58E, size: 0x8, addend: 0x0, symName: __ZNKSt3__18__bitsetILm1ELm64EE10__make_refB8ue170006Em, symObjAddr: 0x4744, symBinAddr: 0x100006750, symSize: 0x40 }
  - { offsetInCU: 0xF5C2, offset: 0xF5C2, size: 0x8, addend: 0x0, symName: __ZNSt3__121__bit_const_referenceINS_8__bitsetILm1ELm64EEEEC1B8ue170006EPKmm, symObjAddr: 0x4784, symBinAddr: 0x100006790, symSize: 0x3C }
  - { offsetInCU: 0xF607, offset: 0xF607, size: 0x8, addend: 0x0, symName: __ZNSt3__121__bit_const_referenceINS_8__bitsetILm1ELm64EEEEC2B8ue170006EPKmm, symObjAddr: 0x47C0, symBinAddr: 0x1000067CC, symSize: 0x2C }
  - { offsetInCU: 0xF64C, offset: 0xF64C, size: 0x8, addend: 0x0, symName: __ZNSt3__19allocatorIcEC1B8ue170006Ev, symObjAddr: 0x47EC, symBinAddr: 0x1000067F8, symSize: 0x2C }
  - { offsetInCU: 0xF675, offset: 0xF675, size: 0x8, addend: 0x0, symName: __ZNSt3__16bitsetILm32EEC2B8ue170006IcNS_11char_traitsIcEENS_9allocatorIcEEEERKNS_12basic_stringIT_T0_T1_EENSB_9size_typeESE_S8_S8_, symObjAddr: 0x4818, symBinAddr: 0x100006824, symSize: 0xCC }
  - { offsetInCU: 0xF721, offset: 0xF721, size: 0x8, addend: 0x0, symName: __ZNSt3__18__bitsetILm1ELm32EEC2Ev, symObjAddr: 0x48E4, symBinAddr: 0x1000068F0, symSize: 0x18 }
  - { offsetInCU: 0xF74C, offset: 0xF74C, size: 0x8, addend: 0x0, symName: __ZNSt3__16bitsetILm32EE23__init_from_string_viewB8ue170006IcNS_11char_traitsIcEEEEvNS_17basic_string_viewIT_T0_EES6_S6_, symObjAddr: 0x4960, symBinAddr: 0x10000696C, symSize: 0x1B8 }
  - { offsetInCU: 0xF80A, offset: 0xF80A, size: 0x8, addend: 0x0, symName: __ZNSt3__117basic_string_viewIcNS_11char_traitsIcEEEC1B8ue170006EPKcm, symObjAddr: 0x4B18, symBinAddr: 0x100006B24, symSize: 0x3C }
  - { offsetInCU: 0xF851, offset: 0xF851, size: 0x8, addend: 0x0, symName: __ZNSt12out_of_rangeC1B8ue170006EPKc, symObjAddr: 0x4B54, symBinAddr: 0x100006B60, symSize: 0x34 }
  - { offsetInCU: 0xF888, offset: 0xF888, size: 0x8, addend: 0x0, symName: __ZNSt12out_of_rangeC2B8ue170006EPKc, symObjAddr: 0x4B88, symBinAddr: 0x100006B94, symSize: 0x4C }
  - { offsetInCU: 0xF8BF, offset: 0xF8BF, size: 0x8, addend: 0x0, symName: __ZNKSt3__117basic_string_viewIcNS_11char_traitsIcEEE4sizeB8ue170006Ev, symObjAddr: 0x4BD4, symBinAddr: 0x100006BE0, symSize: 0x18 }
  - { offsetInCU: 0xF8E4, offset: 0xF8E4, size: 0x8, addend: 0x0, symName: __ZNSt3__111char_traitsIcE2eqEcc, symObjAddr: 0x4BEC, symBinAddr: 0x100006BF8, symSize: 0x28 }
  - { offsetInCU: 0xF915, offset: 0xF915, size: 0x8, addend: 0x0, symName: __ZNKSt3__117basic_string_viewIcNS_11char_traitsIcEEEixB8ue170006Em, symObjAddr: 0x4C14, symBinAddr: 0x100006C20, symSize: 0x24 }
  - { offsetInCU: 0xF949, offset: 0xF949, size: 0x8, addend: 0x0, symName: __ZNSt3__16bitsetILm32EEixB8ue170006Em, symObjAddr: 0x4C9C, symBinAddr: 0x100006CA8, symSize: 0x3C }
  - { offsetInCU: 0xF97D, offset: 0xF97D, size: 0x8, addend: 0x0, symName: __ZNSt3__115__bit_referenceINS_8__bitsetILm1ELm32EEELb1EEaSB8ue170006Eb, symObjAddr: 0x4CD8, symBinAddr: 0x100006CE4, symSize: 0x6C }
  - { offsetInCU: 0xF9B0, offset: 0xF9B0, size: 0x8, addend: 0x0, symName: __ZNSt3__18__bitsetILm1ELm32EE11__make_iterB8ue170006Em, symObjAddr: 0x4DB0, symBinAddr: 0x100006DBC, symSize: 0x60 }
  - { offsetInCU: 0xF9E4, offset: 0xF9E4, size: 0x8, addend: 0x0, symName: __ZNSt16invalid_argumentC1B8ue170006EPKc, symObjAddr: 0x4E10, symBinAddr: 0x100006E1C, symSize: 0x34 }
  - { offsetInCU: 0xFA1B, offset: 0xFA1B, size: 0x8, addend: 0x0, symName: __ZNSt16invalid_argumentC2B8ue170006EPKc, symObjAddr: 0x4E44, symBinAddr: 0x100006E50, symSize: 0x4C }
  - { offsetInCU: 0xFA52, offset: 0xFA52, size: 0x8, addend: 0x0, symName: __ZNSt3__18__bitsetILm1ELm32EE10__make_refB8ue170006Em, symObjAddr: 0x4E90, symBinAddr: 0x100006E9C, symSize: 0x40 }
  - { offsetInCU: 0xFA86, offset: 0xFA86, size: 0x8, addend: 0x0, symName: __ZNSt3__115__bit_referenceINS_8__bitsetILm1ELm32EEELb1EEC1B8ue170006EPmm, symObjAddr: 0x4ED0, symBinAddr: 0x100006EDC, symSize: 0x3C }
  - { offsetInCU: 0xFACB, offset: 0xFACB, size: 0x8, addend: 0x0, symName: __ZNSt3__115__bit_referenceINS_8__bitsetILm1ELm32EEELb1EEC2B8ue170006EPmm, symObjAddr: 0x4F0C, symBinAddr: 0x100006F18, symSize: 0x2C }
  - { offsetInCU: 0xFB10, offset: 0xFB10, size: 0x8, addend: 0x0, symName: __ZNSt3__114__bit_iteratorINS_8__bitsetILm1ELm32EEELb0ELm0EEC1B8ue170006ERKS3_, symObjAddr: 0x4FCC, symBinAddr: 0x100006FD8, symSize: 0x34 }
  - { offsetInCU: 0xFB48, offset: 0xFB48, size: 0x8, addend: 0x0, symName: __ZNSt3__114__bit_iteratorINS_8__bitsetILm1ELm32EEELb0ELm0EEC2B8ue170006ERKS3_, symObjAddr: 0x5304, symBinAddr: 0x100007310, symSize: 0x30 }
  - { offsetInCU: 0xFB80, offset: 0xFB80, size: 0x8, addend: 0x0, symName: __ZNSt3__114__bit_iteratorINS_8__bitsetILm1ELm32EEELb0ELm0EEC1B8ue170006EPmj, symObjAddr: 0x5334, symBinAddr: 0x100007340, symSize: 0x3C }
  - { offsetInCU: 0xFBC7, offset: 0xFBC7, size: 0x8, addend: 0x0, symName: __ZNSt3__114__bit_iteratorINS_8__bitsetILm1ELm32EEELb0ELm0EEC2B8ue170006EPmj, symObjAddr: 0x5370, symBinAddr: 0x10000737C, symSize: 0x2C }
  - { offsetInCU: 0xFC0E, offset: 0xFC0E, size: 0x8, addend: 0x0, symName: __ZNSt3__117basic_string_viewIcNS_11char_traitsIcEEEC2B8ue170006EPKcm, symObjAddr: 0x539C, symBinAddr: 0x1000073A8, symSize: 0x2C }
  - { offsetInCU: 0xFC54, offset: 0xFC54, size: 0x8, addend: 0x0, symName: __ZNKSt3__16bitsetILm48EE9to_stringB8ue170006IcNS_11char_traitsIcEEEENS_12basic_stringIT_T0_NS_9allocatorIS6_EEEES6_S6_, symObjAddr: 0x5414, symBinAddr: 0x100007420, symSize: 0x3C }
  - { offsetInCU: 0xFCAA, offset: 0xFCAA, size: 0x8, addend: 0x0, symName: __ZNKSt3__16bitsetILm48EE9to_stringB8ue170006IcNS_11char_traitsIcEENS_9allocatorIcEEEENS_12basic_stringIT_T0_T1_EES8_S8_, symObjAddr: 0x5450, symBinAddr: 0x10000745C, symSize: 0x138 }
  - { offsetInCU: 0xFD2F, offset: 0xFD2F, size: 0x8, addend: 0x0, symName: __ZNKSt3__16bitsetILm48EEixB8ue170006Em, symObjAddr: 0x5588, symBinAddr: 0x100007594, symSize: 0x3C }
  - { offsetInCU: 0xFD63, offset: 0xFD63, size: 0x8, addend: 0x0, symName: __ZNKSt3__121__bit_const_referenceINS_8__bitsetILm1ELm48EEEEcvbB8ue170006Ev, symObjAddr: 0x55C4, symBinAddr: 0x1000075D0, symSize: 0x2C }
  - { offsetInCU: 0xFD88, offset: 0xFD88, size: 0x8, addend: 0x0, symName: __ZNKSt3__18__bitsetILm1ELm48EE10__make_refB8ue170006Em, symObjAddr: 0x55F0, symBinAddr: 0x1000075FC, symSize: 0x40 }
  - { offsetInCU: 0xFDBC, offset: 0xFDBC, size: 0x8, addend: 0x0, symName: __ZNSt3__121__bit_const_referenceINS_8__bitsetILm1ELm48EEEEC1B8ue170006EPKmm, symObjAddr: 0x5630, symBinAddr: 0x10000763C, symSize: 0x3C }
  - { offsetInCU: 0xFE01, offset: 0xFE01, size: 0x8, addend: 0x0, symName: __ZNSt3__121__bit_const_referenceINS_8__bitsetILm1ELm48EEEEC2B8ue170006EPKmm, symObjAddr: 0x566C, symBinAddr: 0x100007678, symSize: 0x2C }
...
